target datalayout = "e-m:e-p270:32:32-p271:32:32-p272:64:64-i64:64-i128:128-f80:128-n8:16:32:64-S128"
target triple = "x86_64-pc-linux-gnu"

%"class.std::vector.58" = type { %"struct.std::_Vector_base.59" }
%"struct.std::_Vector_base.59" = type { %"struct.std::_Vector_base<const Luau::Type *, std::allocator<const Luau::Type *>>::_Vector_impl" }
%"struct.std::_Vector_base<const Luau::Type *, std::allocator<const Luau::Type *>>::_Vector_impl" = type { %"struct.std::_Vector_base<const Luau::Type *, std::allocator<const Luau::Type *>>::_Vector_impl_data" }
%"struct.std::_Vector_base<const Luau::Type *, std::allocator<const Luau::Type *>>::_Vector_impl_data" = type { ptr, ptr, ptr }
%"class.__gnu_cxx::__normal_iterator" = type { ptr }
%"struct.Luau::IntersectionType" = type { %"class.std::vector.58" }

; Function Attrs: mustprogress nounwind uwtable
define linkonce_odr dso_local noundef nonnull align 8 dereferenceable(8) ptr @_ZNK9__gnu_cxx17__normal_iteratorIPKPKN4Luau4TypeESt6vectorIS4_SaIS4_EEE4baseEv(ptr noundef nonnull align 8 dereferenceable(8) %0) #4 comdat align 2 {
  %2 = alloca ptr, align 8
  store ptr %0, ptr %2, align 8, !tbaa !275
  %3 = load ptr, ptr %2, align 8
  %4 = getelementptr inbounds nuw %"class.__gnu_cxx::__normal_iterator", ptr %3, i32 0, i32 0
  ret ptr %4
}

; Function Attrs: mustprogress nounwind uwtable
define linkonce_odr dso_local void @_ZN9__gnu_cxx17__normal_iteratorIPKPKN4Luau4TypeESt6vectorIS4_SaIS4_EEEC2ERKS6_(ptr noundef nonnull align 8 dereferenceable(8) %0, ptr noundef nonnull align 8 dereferenceable(8) %1) unnamed_addr #4 comdat align 2 {
  %3 = alloca ptr, align 8
  %4 = alloca ptr, align 8
  store ptr %0, ptr %3, align 8, !tbaa !275
  store ptr %1, ptr %4, align 8, !tbaa !662
  %5 = load ptr, ptr %3, align 8
  %6 = getelementptr inbounds nuw %"class.__gnu_cxx::__normal_iterator", ptr %5, i32 0, i32 0
  %7 = load ptr, ptr %4, align 8, !tbaa !662
  %8 = load ptr, ptr %7, align 8, !tbaa !101
  store ptr %8, ptr %6, align 8, !tbaa !277
  ret void
}

; Function Attrs: mustprogress nounwind uwtable
define linkonce_odr dso_local noundef nonnull align 8 dereferenceable(8) ptr @_ZN9__gnu_cxx17__normal_iteratorIPKPKN4Luau4TypeESt6vectorIS4_SaIS4_EEEppEv(ptr noundef nonnull align 8 dereferenceable(8) %0) #4 comdat align 2 {
  %2 = alloca ptr, align 8
  store ptr %0, ptr %2, align 8, !tbaa !275
  %3 = load ptr, ptr %2, align 8
  %4 = getelementptr inbounds nuw %"class.__gnu_cxx::__normal_iterator", ptr %3, i32 0, i32 0
  %5 = load ptr, ptr %4, align 8, !tbaa !277
  %6 = getelementptr inbounds nuw ptr, ptr %5, i32 1
  store ptr %6, ptr %4, align 8, !tbaa !277
  ret ptr %3
}

; Function Attrs: mustprogress nounwind uwtable
define linkonce_odr dso_local noundef nonnull align 8 dereferenceable(8) ptr @_ZNK9__gnu_cxx17__normal_iteratorIPKPKN4Luau4TypeESt6vectorIS4_SaIS4_EEEdeEv(ptr noundef nonnull align 8 dereferenceable(8) %0) #4 comdat align 2 {
  %2 = alloca ptr, align 8
  store ptr %0, ptr %2, align 8, !tbaa !275
  %3 = load ptr, ptr %2, align 8
  %4 = getelementptr inbounds nuw %"class.__gnu_cxx::__normal_iterator", ptr %3, i32 0, i32 0
  %5 = load ptr, ptr %4, align 8, !tbaa !277
  ret ptr %5
}

; Function Attrs: inlinehint mustprogress nounwind uwtable
define linkonce_odr dso_local noundef zeroext i1 @_ZN9__gnu_cxxneIPKPKN4Luau4TypeESt6vectorIS4_SaIS4_EEEEbRKNS_17__normal_iteratorIT_T0_EESF_(ptr noundef nonnull align 8 dereferenceable(8) %0, ptr noundef nonnull align 8 dereferenceable(8) %1) #6 comdat {
  %3 = alloca ptr, align 8
  %4 = alloca ptr, align 8
  store ptr %0, ptr %3, align 8, !tbaa !275
  store ptr %1, ptr %4, align 8, !tbaa !275
  %5 = load ptr, ptr %3, align 8, !tbaa !275
  %6 = call noundef nonnull align 8 dereferenceable(8) ptr @_ZNK9__gnu_cxx17__normal_iteratorIPKPKN4Luau4TypeESt6vectorIS4_SaIS4_EEE4baseEv(ptr noundef nonnull align 8 dereferenceable(8) %5) #20
  %7 = load ptr, ptr %6, align 8, !tbaa !101
  %8 = load ptr, ptr %4, align 8, !tbaa !275
  %9 = call noundef nonnull align 8 dereferenceable(8) ptr @_ZNK9__gnu_cxx17__normal_iteratorIPKPKN4Luau4TypeESt6vectorIS4_SaIS4_EEE4baseEv(ptr noundef nonnull align 8 dereferenceable(8) %8) #20
  %10 = load ptr, ptr %9, align 8, !tbaa !101
  %11 = icmp ne ptr %7, %10
  ret i1 %11
}

; Function Attrs: mustprogress nounwind uwtable
define linkonce_odr dso_local ptr @_ZNKSt6vectorIPKN4Luau4TypeESaIS3_EE3endEv(ptr noundef nonnull align 8 dereferenceable(24) %0) #4 comdat align 2 {
  %2 = alloca %"class.__gnu_cxx::__normal_iterator", align 8
  %3 = alloca ptr, align 8
  store ptr %0, ptr %3, align 8, !tbaa !212
  %4 = load ptr, ptr %3, align 8
  %5 = getelementptr inbounds nuw %"struct.std::_Vector_base.59", ptr %4, i32 0, i32 0
  %6 = getelementptr inbounds nuw %"struct.std::_Vector_base<const Luau::Type *, std::allocator<const Luau::Type *>>::_Vector_impl_data", ptr %5, i32 0, i32 1
  call void @_ZN9__gnu_cxx17__normal_iteratorIPKPKN4Luau4TypeESt6vectorIS4_SaIS4_EEEC2ERKS6_(ptr noundef nonnull align 8 dereferenceable(8) %2, ptr noundef nonnull align 8 dereferenceable(8) %6) #20
  %7 = getelementptr inbounds nuw %"class.__gnu_cxx::__normal_iterator", ptr %2, i32 0, i32 0
  %8 = load ptr, ptr %7, align 8
  ret ptr %8
}

; Function Attrs: mustprogress nounwind uwtable
define linkonce_odr dso_local ptr @_ZNKSt6vectorIPKN4Luau4TypeESaIS3_EE5beginEv(ptr noundef nonnull align 8 dereferenceable(24) %0) #4 comdat align 2 {
  %2 = alloca %"class.__gnu_cxx::__normal_iterator", align 8
  %3 = alloca ptr, align 8
  store ptr %0, ptr %3, align 8, !tbaa !212
  %4 = load ptr, ptr %3, align 8
  %5 = getelementptr inbounds nuw %"struct.std::_Vector_base.59", ptr %4, i32 0, i32 0
  %6 = getelementptr inbounds nuw %"struct.std::_Vector_base<const Luau::Type *, std::allocator<const Luau::Type *>>::_Vector_impl_data", ptr %5, i32 0, i32 0
  call void @_ZN9__gnu_cxx17__normal_iteratorIPKPKN4Luau4TypeESt6vectorIS4_SaIS4_EEEC2ERKS6_(ptr noundef nonnull align 8 dereferenceable(8) %2, ptr noundef nonnull align 8 dereferenceable(8) %6) #20
  %7 = getelementptr inbounds nuw %"class.__gnu_cxx::__normal_iterator", ptr %2, i32 0, i32 0
  %8 = load ptr, ptr %7, align 8
  ret ptr %8
}

; Function Attrs: mustprogress uwtable
define dso_local noundef zeroext i1 @_ZN4Luau8Unifier25unifyEPKNS_16IntersectionTypeEPKNS_4TypeE(ptr noundef nonnull align 8 dereferenceable(336) %0, ptr noundef %1, ptr noundef %2) #2 align 2 {
  %4 = alloca ptr, align 8
  %5 = alloca ptr, align 8
  %6 = alloca ptr, align 8
  %7 = alloca i8, align 1
  %8 = alloca ptr, align 8
  %9 = alloca %"class.__gnu_cxx::__normal_iterator", align 8
  %10 = alloca %"class.__gnu_cxx::__normal_iterator", align 8
  %11 = alloca ptr, align 8
  store ptr %0, ptr %4, align 8, !tbaa !8
  store ptr %1, ptr %5, align 8, !tbaa !133
  store ptr %2, ptr %6, align 8, !tbaa !25
  %12 = load ptr, ptr %4, align 8
  call void @llvm.lifetime.start.p0(i64 1, ptr %7) #20
  store i8 1, ptr %7, align 1, !tbaa !173
  call void @llvm.lifetime.start.p0(i64 8, ptr %8) #20
  %13 = load ptr, ptr %5, align 8, !tbaa !133
  %14 = getelementptr inbounds nuw %"struct.Luau::IntersectionType", ptr %13, i32 0, i32 0
  store ptr %14, ptr %8, align 8, !tbaa !212
  call void @llvm.lifetime.start.p0(i64 8, ptr %9) #20
  %15 = load ptr, ptr %8, align 8, !tbaa !212
  %16 = call ptr @_ZNKSt6vectorIPKN4Luau4TypeESaIS3_EE5beginEv(ptr noundef nonnull align 8 dereferenceable(24) %15) #20
  %17 = getelementptr inbounds nuw %"class.__gnu_cxx::__normal_iterator", ptr %9, i32 0, i32 0
  store ptr %16, ptr %17, align 8
  call void @llvm.lifetime.start.p0(i64 8, ptr %10) #20
  %18 = load ptr, ptr %8, align 8, !tbaa !212
  %19 = call ptr @_ZNKSt6vectorIPKN4Luau4TypeESaIS3_EE3endEv(ptr noundef nonnull align 8 dereferenceable(24) %18) #20
  %20 = getelementptr inbounds nuw %"class.__gnu_cxx::__normal_iterator", ptr %10, i32 0, i32 0
  store ptr %19, ptr %20, align 8
  br label %21

21:                                               ; preds = %37, %3
  %22 = call noundef zeroext i1 @_ZN9__gnu_cxxneIPKPKN4Luau4TypeESt6vectorIS4_SaIS4_EEEEbRKNS_17__normal_iteratorIT_T0_EESF_(ptr noundef nonnull align 8 dereferenceable(8) %9, ptr noundef nonnull align 8 dereferenceable(8) %10) #20
  br i1 %22, label %24, label %23

23:                                               ; preds = %21
  call void @llvm.lifetime.end.p0(i64 8, ptr %10) #20
  call void @llvm.lifetime.end.p0(i64 8, ptr %9) #20
  call void @llvm.lifetime.end.p0(i64 8, ptr %8) #20
  br label %39

24:                                               ; preds = %21
  call void @llvm.lifetime.start.p0(i64 8, ptr %11) #20
  %25 = call noundef nonnull align 8 dereferenceable(8) ptr @_ZNK9__gnu_cxx17__normal_iteratorIPKPKN4Luau4TypeESt6vectorIS4_SaIS4_EEEdeEv(ptr noundef nonnull align 8 dereferenceable(8) %9) #20
  %26 = load ptr, ptr %25, align 8, !tbaa !25
  store ptr %26, ptr %11, align 8, !tbaa !25
  %27 = load ptr, ptr %11, align 8, !tbaa !25
  %28 = load ptr, ptr %6, align 8, !tbaa !25
  %29 = call noundef zeroext i1 @_ZN4Luau8Unifier25unifyEPKNS_4TypeES3_(ptr noundef nonnull align 8 dereferenceable(336) %12, ptr noundef %27, ptr noundef %28)
  %30 = zext i1 %29 to i32
  %31 = load i8, ptr %7, align 1, !tbaa !173, !range !175, !noundef !176
  %32 = trunc i8 %31 to i1
  %33 = zext i1 %32 to i32
  %34 = and i32 %33, %30
  %35 = icmp ne i32 %34, 0
  %36 = zext i1 %35 to i8
  store i8 %36, ptr %7, align 1, !tbaa !173
  call void @llvm.lifetime.end.p0(i64 8, ptr %11) #20
  br label %37

37:                                               ; preds = %24
  %38 = call noundef nonnull align 8 dereferenceable(8) ptr @_ZN9__gnu_cxx17__normal_iteratorIPKPKN4Luau4TypeESt6vectorIS4_SaIS4_EEEppEv(ptr noundef nonnull align 8 dereferenceable(8) %9) #20
  br label %21

39:                                               ; preds = %23
  %40 = load i8, ptr %7, align 1, !tbaa !173, !range !175, !noundef !176
  %41 = trunc i8 %40 to i1
  call void @llvm.lifetime.end.p0(i64 1, ptr %7) #20
  ret i1 %41
}